; Function Attrs: nounwind uwtable
define void @wc_ecc_del_point(ptr noundef %p) local_unnamed_addr #2 {
entry:
  %cmp.not.i = icmp eq ptr %p, null
  br i1 %cmp.not.i, label %wc_ecc_del_point_ex.exit, label %if.then.i

if.then.i:                                        ; preds = %entry
  tail call void @sp_clear(ptr noundef nonnull %p) #19
  %y.i = getelementptr inbounds nuw i8, ptr %p, i64 1040
  tail call void @sp_clear(ptr noundef nonnull %y.i) #19
  %z.i = getelementptr inbounds nuw i8, ptr %p, i64 2080
  tail call void @sp_clear(ptr noundef nonnull %z.i) #19
  tail call void @wolfSSL_Free(ptr noundef nonnull %p) #19
  br label %wc_ecc_del_point_ex.exit

wc_ecc_del_point_ex.exit:                         ; preds = %entry, %if.then.i
  ret void
}